Certificate:
    Data:
        Version: 3 (0x2)
        Serial Number: 2 (0x2)
        Signature Algorithm: sha1WithRSAEncryption
        Issuer: CN=10.10.100.185, ST=Hsinchu, C=TW/emailAddress=P2812_CA@zyxel.com.tw, O=ZyXEL_CA
        Validity
            Not Before: Mar  4 12:38:56 2010 GMT
            Not After : Mar  4 12:38:56 2011 GMT
        Subject: C=TW, ST=Hsinchu, O=ZyXEL, OU=MSGSW3, CN=iad.zyxel.com.tw/emailAddress=P2812_iad@zyxel.com.tw
        Subject Public Key Info:
            Public Key Algorithm: rsaEncryption
            RSA Public Key: (512 bit)
                Modulus (512 bit):
                    00:c8:d3:43:46:80:21:74:ec:b6:62:79:23:fe:3a:
                    01:86:56:64:0b:4b:63:9d:bf:4a:88:5b:f4:75:66:
                    5b:96:f3:f6:7a:30:fe:81:c3:7a:2d:f0:25:46:68:
                    13:8f:92:f4:c0:5a:13:80:5d:17:ef:6b:88:d7:f4:
                    79:3e:04:89:75
                Exponent: 65537 (0x10001)
        X509v3 extensions:
            X509v3 Basic Constraints:
                CA:FALSE
    Signature Algorithm: sha1WithRSAEncryption
        86:90:8a:56:10:b7:56:a1:2d:45:cf:f0:c3:e6:d8:53:35:4d:
        5d:f1:da:0f:a6:b0:0f:9f:fd:29:ef:0d:89:dd:c3:ef:48:49:
        f7:e3:83:b7:56:39:f4:26:46:07:66:35:95:c1:69:b5:58:9e:
        92:d4:45:02:ab:f8:c5:32:c6:59:1d:22:27:d5:59:6f:31:c4:
        6c:98:b5:16:30:36:be:a9:20:98:22:ff:d7:2d:f6:57:f3:10:
        ba:8f:3a:41:2c:2e:52:8e:5c:85:21:fe:ef:8a:29:d5:e9:67:
        7d:b0:5a:54:9f:26:f3:a3:5a:76:da:2d:2d:1c:90:45:18:99:
        57:e8:cd:1f:aa:2e:ad:62:22:db:b1:24:6d:21:f6:58:ad:4f:
        d1:af:07:0b:03:e2:af:17:06:cc:09:e3:d7:5b:46:a5:7c:e8:
        d9:56:59:26:ad:29:96:ee:c4:7c:47:90:96:2e:9d:bb:ed:6b:
        14:3e:42:45:19:a1:26:4a:6e:0a:76:b1:d6:81:ec:b3:16:c5:
        81:b7:c3:11:a0:48:f4:bf:91:c0:46:7f:c9:d2:99:22:3e:df:
        dc:d2:ac:7c:d5:40:c6:a4:56:96:33:43:ea:62:5c:a2:14:73:
        68:2b:56:9c:ca:a2:18:cb:d0:9f:05:f5:ef:90:39:dd:c8:cc:
        e3:4d:54:62
-----BEGIN CERTIFICATE-----
MIICszCCAZugAwIBAgIBAjANBgkqhkiG9w0BAQUFADBwMRYwFAYDVQQDEw0xMC4x
MC4xMDAuMTg1MRAwDgYDVQQIEwdIc2luY2h1MQswCQYDVQQGEwJUVzEkMCIGCSqG
SIb3DQEJARYVUDI4MTJfQ0FAenl4ZWwuY29tLnR3MREwDwYDVQQKFAhaeVhFTF9D
QTAeFw0xMDAzMDQxMjM4NTZaFw0xMTAzMDQxMjM4NTZaMIGCMQswCQYDVQQGEwJU
VzEQMA4GA1UECBMHSHNpbmNodTEOMAwGA1UEChMFWnlYRUwxDzANBgNVBAsTBk1T
R1NXMzEZMBcGA1UEAxMQaWFkLnp5eGVsLmNvbS50dzElMCMGCSqGSIb3DQEJARYW
UDI4MTJfaWFkQHp5eGVsLmNvbS50dzBcMA0GCSqGSIb3DQEBAQUAA0sAMEgCQQDI
00NGgCF07LZieSP+OgGGVmQLS2Odv0qIW/R1ZluW8/Z6MP6Bw3ot8CVGaBOPkvTA
WhOAXRfva4jX9Hk+BIl1AgMBAAGjDTALMAkGA1UdEwQCMAAwDQYJKoZIhvcNAQEF
BQADggEBAIaQilYQt1ahLUXP8MPm2FM1TV3x2g+msA+f/SnvDYndw+9ISffjg7dW
OfQmRgdmNZXBabVYnpLURQKr+MUyxlkdIifVWW8xxGyYtRYwNr6pIJgi/9ct9lfz
ELqPOkEsLlKOXIUh/u+KKdXpZ32wWlSfJvOjWnbaLS0ckEUYmVfozR+qLq1iItux
JG0h9litT9GvBwsD4q8XBswJ49dbRqV86NlWWSatKZbuxHxHkJYunbvtaxQ+QkUZ
oSZKbgp2sdaB7LMWxYG3wxGgSPS/kcBGf8nSmSI+39zSrHzVQMakVpYzQ+piXKIU
c2grVpzKohjL0J8F9e+QOd3IzONNVGI=
-----END CERTIFICATE-----
